; Function Attrs: mustprogress nofree norecurse nosync nounwind willreturn memory(argmem: write) uwtable
define noundef i32 @ossl_sm3_init(ptr noundef writeonly captures(none) initializes((0, 108)) %0) local_unnamed_addr #5 {
  %2 = getelementptr inbounds nuw i8, ptr %0, i64 32
  tail call void @llvm.memset.p0.i64(ptr noundef nonnull align 4 dereferenceable(108) %2, i8 0, i64 76, i1 false)
  store i32 1937774191, ptr %0, align 4, !tbaa !10
  %3 = getelementptr inbounds nuw i8, ptr %0, i64 4
  store i32 1226093241, ptr %3, align 4, !tbaa !11
  %4 = getelementptr inbounds nuw i8, ptr %0, i64 8
  store i32 388252375, ptr %4, align 4, !tbaa !12
  %5 = getelementptr inbounds nuw i8, ptr %0, i64 12
  store i32 -628488704, ptr %5, align 4, !tbaa !13
  %6 = getelementptr inbounds nuw i8, ptr %0, i64 16
  store i32 -1452330820, ptr %6, align 4, !tbaa !14
  %7 = getelementptr inbounds nuw i8, ptr %0, i64 20
  store i32 372324522, ptr %7, align 4, !tbaa !15
  %8 = getelementptr inbounds nuw i8, ptr %0, i64 24
  store i32 -477237683, ptr %8, align 4, !tbaa !16
  %9 = getelementptr inbounds nuw i8, ptr %0, i64 28
  store i32 -1325724082, ptr %9, align 4, !tbaa !17
  ret i32 1
}